target datalayout = "e-m:e-p270:32:32-p271:32:32-p272:64:64-i64:64-i128:128-f80:128-n8:16:32:64-S128"
target triple = "x86_64-pc-linux-gnu"

@X509_supported_extension.supported_nids = internal constant [11 x i32] [i32 71, i32 83, i32 85, i32 87, i32 89, i32 126, i32 401, i32 663, i32 666, i32 747, i32 748], align 16

; Function Attrs: inlinehint nounwind uwtable
define available_externally ptr @bsearch(ptr noundef nonnull %0, ptr noundef nonnull %1, i64 noundef %2, i64 noundef %3, ptr noundef nonnull %4) #6 {
  %6 = alloca ptr, align 8
  %7 = alloca ptr, align 8
  %8 = alloca ptr, align 8
  %9 = alloca i64, align 8
  %10 = alloca i64, align 8
  %11 = alloca ptr, align 8
  %12 = alloca i64, align 8
  %13 = alloca i64, align 8
  %14 = alloca i64, align 8
  %15 = alloca ptr, align 8
  %16 = alloca i32, align 4
  %17 = alloca i32, align 4
  store ptr %0, ptr %7, align 8, !tbaa !81
  store ptr %1, ptr %8, align 8, !tbaa !81
  store i64 %2, ptr %9, align 8, !tbaa !62
  store i64 %3, ptr %10, align 8, !tbaa !62
  store ptr %4, ptr %11, align 8, !tbaa !81
  call void @llvm.lifetime.start.p0(i64 8, ptr %12) #7
  call void @llvm.lifetime.start.p0(i64 8, ptr %13) #7
  call void @llvm.lifetime.start.p0(i64 8, ptr %14) #7
  call void @llvm.lifetime.start.p0(i64 8, ptr %15) #7
  call void @llvm.lifetime.start.p0(i64 4, ptr %16) #7
  store i64 0, ptr %12, align 8, !tbaa !62
  %18 = load i64, ptr %9, align 8, !tbaa !62
  store i64 %18, ptr %13, align 8, !tbaa !62
  br label %19

19:                                               ; preds = %50, %5
  %20 = load i64, ptr %12, align 8, !tbaa !62
  %21 = load i64, ptr %13, align 8, !tbaa !62
  %22 = icmp ult i64 %20, %21
  br i1 %22, label %23, label %51

23:                                               ; preds = %19
  %24 = load i64, ptr %12, align 8, !tbaa !62
  %25 = load i64, ptr %13, align 8, !tbaa !62
  %26 = add i64 %24, %25
  %27 = udiv i64 %26, 2
  store i64 %27, ptr %14, align 8, !tbaa !62
  %28 = load ptr, ptr %8, align 8, !tbaa !81
  %29 = load i64, ptr %14, align 8, !tbaa !62
  %30 = load i64, ptr %10, align 8, !tbaa !62
  %31 = mul i64 %29, %30
  %32 = getelementptr inbounds nuw i8, ptr %28, i64 %31
  store ptr %32, ptr %15, align 8, !tbaa !81
  %33 = load ptr, ptr %11, align 8, !tbaa !81
  %34 = load ptr, ptr %7, align 8, !tbaa !81
  %35 = load ptr, ptr %15, align 8, !tbaa !81
  %36 = call i32 %33(ptr noundef %34, ptr noundef %35)
  store i32 %36, ptr %16, align 4, !tbaa !11
  %37 = load i32, ptr %16, align 4, !tbaa !11
  %38 = icmp slt i32 %37, 0
  br i1 %38, label %39, label %41

39:                                               ; preds = %23
  %40 = load i64, ptr %14, align 8, !tbaa !62
  store i64 %40, ptr %13, align 8, !tbaa !62
  br label %50

41:                                               ; preds = %23
  %42 = load i32, ptr %16, align 4, !tbaa !11
  %43 = icmp sgt i32 %42, 0
  br i1 %43, label %44, label %47

44:                                               ; preds = %41
  %45 = load i64, ptr %14, align 8, !tbaa !62
  %46 = add i64 %45, 1
  store i64 %46, ptr %12, align 8, !tbaa !62
  br label %49

47:                                               ; preds = %41
  %48 = load ptr, ptr %15, align 8, !tbaa !81
  store ptr %48, ptr %6, align 8
  store i32 1, ptr %17, align 4
  br label %52

49:                                               ; preds = %44
  br label %50

50:                                               ; preds = %49, %39
  br label %19, !llvm.loop !89

51:                                               ; preds = %19
  store ptr null, ptr %6, align 8
  store i32 1, ptr %17, align 4
  br label %52

52:                                               ; preds = %51, %47
  call void @llvm.lifetime.end.p0(i64 4, ptr %16) #7
  call void @llvm.lifetime.end.p0(i64 8, ptr %15) #7
  call void @llvm.lifetime.end.p0(i64 8, ptr %14) #7
  call void @llvm.lifetime.end.p0(i64 8, ptr %13) #7
  call void @llvm.lifetime.end.p0(i64 8, ptr %12) #7
  %53 = load ptr, ptr %6, align 8
  ret ptr %53
}

; Function Attrs: nounwind uwtable
define hidden i32 @X509_supported_extension(ptr noundef %0) #0 {
  %2 = alloca i32, align 4
  %3 = alloca ptr, align 8
  %4 = alloca i32, align 4
  %5 = alloca i32, align 4
  store ptr %0, ptr %3, align 8, !tbaa !70
  call void @llvm.lifetime.start.p0(i64 4, ptr %4) #7
  %6 = load ptr, ptr %3, align 8, !tbaa !70
  %7 = call ptr @X509_EXTENSION_get_object(ptr noundef %6)
  %8 = call i32 @OBJ_obj2nid(ptr noundef %7)
  store i32 %8, ptr %4, align 4, !tbaa !11
  %9 = load i32, ptr %4, align 4, !tbaa !11
  %10 = icmp eq i32 %9, 0
  br i1 %10, label %11, label %12

11:                                               ; preds = %1
  store i32 0, ptr %2, align 4
  store i32 1, ptr %5, align 4
  br label %17

12:                                               ; preds = %1
  %13 = call ptr @bsearch(ptr noundef %4, ptr noundef @X509_supported_extension.supported_nids, i64 noundef 11, i64 noundef 4, ptr noundef @nid_cmp)
  %14 = icmp ne ptr %13, null
  br i1 %14, label %15, label %16

15:                                               ; preds = %12
  store i32 1, ptr %2, align 4
  store i32 1, ptr %5, align 4
  br label %17

16:                                               ; preds = %12
  store i32 0, ptr %2, align 4
  store i32 1, ptr %5, align 4
  br label %17

17:                                               ; preds = %16, %15, %11
  call void @llvm.lifetime.end.p0(i64 4, ptr %4) #7
  %18 = load i32, ptr %2, align 4
  ret i32 %18
}