; Function Attrs: nounwind uwtable
define hidden range(i32 0, 2) i32 @X509_supported_extension(ptr noundef %0) local_unnamed_addr #0 {
  %2 = tail call ptr @X509_EXTENSION_get_object(ptr noundef %0) #10
  %3 = tail call i32 @OBJ_obj2nid(ptr noundef %2) #10
  %4 = icmp eq i32 %3, 0
  br i1 %4, label %bsearch.exit, label %.lr.ph.i

.lr.ph.i:                                         ; preds = %1, %14
  %.01621.i = phi i64 [ %.1.i, %14 ], [ 0, %1 ]
  %.01720.i = phi i64 [ %.118.i, %14 ], [ 11, %1 ]
  %5 = add i64 %.01720.i, %.01621.i
  %6 = lshr i64 %5, 1
  %7 = shl i64 %6, 2
  %8 = getelementptr inbounds nuw i8, ptr @X509_supported_extension.supported_nids, i64 %7
  %9 = load i32, ptr %8, align 4, !tbaa !74
  %10 = icmp slt i32 %3, %9
  br i1 %10, label %14, label %11

11:                                               ; preds = %.lr.ph.i
  %.not.i = icmp eq i32 %3, %9
  br i1 %.not.i, label %bsearch.exit, label %12

12:                                               ; preds = %11
  %13 = add nuw i64 %6, 1
  br label %14

14:                                               ; preds = %12, %.lr.ph.i
  %.118.i = phi i64 [ %.01720.i, %12 ], [ %6, %.lr.ph.i ]
  %.1.i = phi i64 [ %13, %12 ], [ %.01621.i, %.lr.ph.i ]
  %15 = icmp ult i64 %.1.i, %.118.i
  br i1 %15, label %.lr.ph.i, label %bsearch.exit, !llvm.loop !75

bsearch.exit:                                     ; preds = %14, %11, %1
  %.0 = phi i32 [ 0, %1 ], [ 1, %11 ], [ 0, %14 ]
  ret i32 %.0
}